; Function Attrs: nounwind uwtable
define ptr @l_Lean_Elab_elabModifiers___rarg___lambda__2___boxed(ptr noundef readonly captures(none) %0) #0 {
  %2 = load ptr, ptr %0, align 8, !tbaa !9
  %3 = getelementptr inbounds nuw i8, ptr %0, i64 8
  %4 = load ptr, ptr %3, align 8, !tbaa !9
  %5 = getelementptr inbounds nuw i8, ptr %0, i64 16
  %6 = load ptr, ptr %5, align 8, !tbaa !9
  %7 = getelementptr inbounds nuw i8, ptr %0, i64 24
  %8 = load ptr, ptr %7, align 8, !tbaa !9
  %9 = getelementptr inbounds nuw i8, ptr %0, i64 32
  %10 = load ptr, ptr %9, align 8, !tbaa !9
  %11 = getelementptr inbounds nuw i8, ptr %0, i64 40
  %12 = load ptr, ptr %11, align 8, !tbaa !9
  %13 = getelementptr inbounds nuw i8, ptr %0, i64 48
  %14 = load ptr, ptr %13, align 8, !tbaa !9
  %15 = getelementptr inbounds nuw i8, ptr %0, i64 56
  %16 = load ptr, ptr %15, align 8, !tbaa !9
  %17 = getelementptr inbounds nuw i8, ptr %0, i64 64
  %18 = load ptr, ptr %17, align 8, !tbaa !9
  %19 = getelementptr inbounds nuw i8, ptr %0, i64 72
  %20 = load ptr, ptr %19, align 8, !tbaa !9
  %21 = getelementptr inbounds nuw i8, ptr %0, i64 80
  %22 = load ptr, ptr %21, align 8, !tbaa !9
  %23 = getelementptr inbounds nuw i8, ptr %0, i64 88
  %24 = load ptr, ptr %23, align 8, !tbaa !9
  %25 = getelementptr inbounds nuw i8, ptr %0, i64 96
  %26 = load ptr, ptr %25, align 8, !tbaa !9
  %27 = getelementptr inbounds nuw i8, ptr %0, i64 104
  %28 = load ptr, ptr %27, align 8, !tbaa !9
  %29 = getelementptr inbounds nuw i8, ptr %0, i64 112
  %30 = load ptr, ptr %29, align 8, !tbaa !9
  %31 = getelementptr inbounds nuw i8, ptr %0, i64 120
  %32 = load ptr, ptr %31, align 8, !tbaa !9
  %33 = getelementptr inbounds nuw i8, ptr %0, i64 128
  %34 = load ptr, ptr %33, align 8, !tbaa !9
  %35 = getelementptr inbounds nuw i8, ptr %0, i64 136
  %36 = load ptr, ptr %35, align 8, !tbaa !9
  %37 = ptrtoint ptr %12 to i64
  %38 = lshr i64 %37, 1
  %39 = trunc i64 %38 to i8
  %40 = and i64 %37, 1
  %.not = icmp eq i64 %40, 0
  br i1 %.not, label %41, label %lean_dec.exit42

41:                                               ; preds = %1
  %42 = load i32, ptr %12, align 4, !tbaa !4
  %43 = icmp sgt i32 %42, 1
  br i1 %43, label %44, label %46, !prof !13

44:                                               ; preds = %41
  %45 = add nsw i32 %42, -1
  store i32 %45, ptr %12, align 4, !tbaa !4
  br label %lean_dec.exit42

46:                                               ; preds = %41
  %.not.i = icmp eq i32 %42, 0
  br i1 %.not.i, label %lean_dec.exit42, label %47

47:                                               ; preds = %46
  tail call void @lean_dec_ref_cold(ptr noundef nonnull %12) #7
  br label %lean_dec.exit42

lean_dec.exit42:                                  ; preds = %47, %46, %44, %1
  %48 = ptrtoint ptr %36 to i64
  %49 = lshr i64 %48, 1
  %50 = trunc i64 %49 to i8
  %51 = and i64 %48, 1
  %.not47 = icmp eq i64 %51, 0
  br i1 %.not47, label %52, label %lean_dec.exit41

52:                                               ; preds = %lean_dec.exit42
  %53 = load i32, ptr %36, align 4, !tbaa !4
  %54 = icmp sgt i32 %53, 1
  br i1 %54, label %55, label %57, !prof !13

55:                                               ; preds = %52
  %56 = add nsw i32 %53, -1
  store i32 %56, ptr %36, align 4, !tbaa !4
  br label %lean_dec.exit41

57:                                               ; preds = %52
  %.not.i43 = icmp eq i32 %53, 0
  br i1 %.not.i43, label %lean_dec.exit41, label %58

58:                                               ; preds = %57
  tail call void @lean_dec_ref_cold(ptr noundef nonnull %36) #7
  br label %lean_dec.exit41

lean_dec.exit41:                                  ; preds = %58, %57, %55, %lean_dec.exit42
  %59 = tail call ptr @l_Lean_Elab_elabModifiers___rarg___lambda__2(ptr noundef %2, ptr noundef %4, ptr noundef %6, ptr noundef %8, ptr noundef %10, i8 noundef zeroext %39, ptr noundef %14, ptr noundef %16, ptr noundef %18, ptr noundef %20, ptr noundef %22, ptr noundef %24, ptr noundef %26, ptr noundef %28, ptr noundef %30, ptr noundef %32, ptr noundef %34, i8 noundef zeroext %50)
  %60 = ptrtoint ptr %14 to i64
  %61 = and i64 %60, 1
  %.not48 = icmp eq i64 %61, 0
  br i1 %.not48, label %62, label %lean_dec.exit

62:                                               ; preds = %lean_dec.exit41
  %63 = load i32, ptr %14, align 4, !tbaa !4
  %64 = icmp sgt i32 %63, 1
  br i1 %64, label %65, label %67, !prof !13

65:                                               ; preds = %62
  %66 = add nsw i32 %63, -1
  store i32 %66, ptr %14, align 4, !tbaa !4
  br label %lean_dec.exit

67:                                               ; preds = %62
  %.not.i45 = icmp eq i32 %63, 0
  br i1 %.not.i45, label %lean_dec.exit, label %68

68:                                               ; preds = %67
  tail call void @lean_dec_ref_cold(ptr noundef nonnull %14) #7
  br label %lean_dec.exit

lean_dec.exit:                                    ; preds = %68, %67, %65, %lean_dec.exit41
  ret ptr %59
}